#include <math.h>
#include <stdio.h>
#include <stdlib.h>
#include <string.h>

void main()
{
	int num=0,i=0,j=0;
	char s[1000]={0};
	gets(s);
line:while(s[j]!='\0')
	{
		while((s[j]!=' ')&&(s[j]!='\0'))
		{
			num++;
			j++;
		}
		if(num==0)
		{
			j++;
			goto line;
		}
		if(s[j]==' ')
			printf("%d,",num);
		if(s[j]=='\0')
			printf("%d",num);
		j++;
		num=0;
	}
}

