; ModuleID = 'source-C-CXX/27/1376.c'
source_filename = "source-C-CXX/27/1376.c"
target datalayout = "e-m:e-p270:32:32-p271:32:32-p272:64:64-i64:64-f80:128-n8:16:32:64-S128"
target triple = "x86_64-pc-linux-gnu"

@.str = private unnamed_addr constant [4 x i8] c"%d,\00", align 1
@.str.1 = private unnamed_addr constant [3 x i8] c"%d\00", align 1

; Function Attrs: nounwind sspstrong uwtable
define dso_local void @main() local_unnamed_addr #0 {
  %1 = alloca [1000 x i8], align 16
  %2 = getelementptr inbounds [1000 x i8], [1000 x i8]* %1, i64 0, i64 0
  call void @llvm.lifetime.start.p0i8(i64 1000, i8* nonnull %2) #5
  call void @llvm.memset.p0i8.i64(i8* noundef nonnull align 16 dereferenceable(1000) %2, i8 0, i64 1000, i1 false)
  %3 = call i32 (i8*, ...) bitcast (i32 (...)* @gets to i32 (i8*, ...)*)(i8* nonnull %2) #5
  %4 = load i8, i8* %2, align 16, !tbaa !5
  %5 = icmp eq i8 %4, 0
  br i1 %5, label %46, label %6

6:                                                ; preds = %0, %44
  %7 = phi i32 [ %45, %44 ], [ 0, %0 ]
  %8 = sext i32 %7 to i64
  br label %9

9:                                                ; preds = %6, %14
  %10 = phi i64 [ %8, %6 ], [ %16, %14 ]
  %11 = phi i32 [ 0, %6 ], [ %15, %14 ]
  %12 = getelementptr inbounds [1000 x i8], [1000 x i8]* %1, i64 0, i64 %10
  %13 = load i8, i8* %12, align 1, !tbaa !5
  switch i8 %13, label %14 [
    i8 32, label %17
    i8 0, label %17
  ]

14:                                               ; preds = %9
  %15 = add nuw nsw i32 %11, 1
  %16 = add i64 %10, 1
  br label %9, !llvm.loop !8

17:                                               ; preds = %9, %9
  %18 = getelementptr inbounds [1000 x i8], [1000 x i8]* %1, i64 0, i64 %10
  %19 = trunc i64 %10 to i32
  %20 = icmp eq i32 %11, 0
  br i1 %20, label %21, label %28

21:                                               ; preds = %17
  %22 = trunc i64 %10 to i32
  %23 = add nsw i32 %22, 1
  %24 = sext i32 %23 to i64
  %25 = getelementptr inbounds [1000 x i8], [1000 x i8]* %1, i64 0, i64 %24
  %26 = load i8, i8* %25, align 1, !tbaa !5
  %27 = icmp eq i8 %26, 0
  br i1 %27, label %46, label %44

28:                                               ; preds = %17
  %29 = icmp eq i8 %13, 32
  br i1 %29, label %30, label %33

30:                                               ; preds = %28
  %31 = call i32 (i8*, ...) @printf(i8* nonnull dereferenceable(1) getelementptr inbounds ([4 x i8], [4 x i8]* @.str, i64 0, i64 0), i32 %11)
  %32 = load i8, i8* %18, align 1, !tbaa !5
  br label %33

33:                                               ; preds = %30, %28
  %34 = phi i8 [ %32, %30 ], [ %13, %28 ]
  %35 = icmp eq i8 %34, 0
  br i1 %35, label %36, label %38

36:                                               ; preds = %33
  %37 = call i32 (i8*, ...) @printf(i8* nonnull dereferenceable(1) getelementptr inbounds ([3 x i8], [3 x i8]* @.str.1, i64 0, i64 0), i32 %11)
  br label %38

38:                                               ; preds = %36, %33
  %39 = add nsw i32 %19, 1
  %40 = sext i32 %39 to i64
  %41 = getelementptr inbounds [1000 x i8], [1000 x i8]* %1, i64 0, i64 %40
  %42 = load i8, i8* %41, align 1, !tbaa !5
  %43 = icmp eq i8 %42, 0
  br i1 %43, label %46, label %44

44:                                               ; preds = %38, %21
  %45 = phi i32 [ %39, %38 ], [ %23, %21 ]
  br label %6, !llvm.loop !10

46:                                               ; preds = %21, %38, %0
  call void @llvm.lifetime.end.p0i8(i64 1000, i8* nonnull %2) #5
  ret void
}

; Function Attrs: argmemonly mustprogress nofree nosync nounwind willreturn
declare void @llvm.lifetime.start.p0i8(i64 immarg, i8* nocapture) #1

; Function Attrs: argmemonly mustprogress nofree nounwind willreturn writeonly
declare void @llvm.memset.p0i8.i64(i8* nocapture writeonly, i8, i64, i1 immarg) #2

declare i32 @gets(...) local_unnamed_addr #3

; Function Attrs: nofree nounwind
declare noundef i32 @printf(i8* nocapture noundef readonly, ...) local_unnamed_addr #4

; Function Attrs: argmemonly mustprogress nofree nosync nounwind willreturn
declare void @llvm.lifetime.end.p0i8(i64 immarg, i8* nocapture) #1


!llvm.module.flags = !{!0, !1, !2, !3}
!llvm.ident = !{!4}

!0 = !{i32 1, !"wchar_size", i32 4}
!1 = !{i32 7, !"PIC Level", i32 2}
!2 = !{i32 7, !"PIE Level", i32 2}
!3 = !{i32 7, !"uwtable", i32 1}
!4 = !{!"clang version 13.0.0"}
!5 = !{!6, !6, i64 0}
!6 = !{!"omnipotent char", !7, i64 0}
!7 = !{!"Simple C/C++ TBAA"}
!8 = distinct !{!8, !9}
!9 = !{!"llvm.loop.mustprogress"}
!10 = distinct !{!10, !9}
